target datalayout = "e-m:e-p270:32:32-p271:32:32-p272:64:64-i64:64-i128:128-f80:128-n8:16:32:64-S128"
target triple = "x86_64-pc-linux-gnu"

%struct.lean_object = type { i32, i32 }
%struct.lean_string_object = type { %struct.lean_object, i64, i64, i64, [0 x i8] }

@l_Lake_helpScript___closed__1 = internal global ptr null, align 8
@l_Lake_helpScript___closed__2 = internal global ptr null, align 8
@l_Lake_helpScript___closed__3 = internal global ptr null, align 8
@l_Lake_helpScriptCli = global ptr null, align 8
@l_Lake_helpScriptDoc = global ptr null, align 8
@l_Lake_helpScriptRun = global ptr null, align 8
@l_Lake_helpScriptList = global ptr null, align 8

; Function Attrs: inlinehint nounwind uwtable
define internal ptr @lean_to_string(ptr noundef %0) #0 {
  %2 = alloca ptr, align 8
  store ptr %0, ptr %2, align 8, !tbaa !4
  %3 = load ptr, ptr %2, align 8, !tbaa !4
  ret ptr %3
}

; Function Attrs: inlinehint nounwind uwtable
define internal i64 @lean_string_size(ptr noundef %0) #0 {
  %2 = alloca ptr, align 8
  store ptr %0, ptr %2, align 8, !tbaa !4
  %3 = load ptr, ptr %2, align 8, !tbaa !4
  %4 = call ptr @lean_to_string(ptr noundef %3)
  %5 = getelementptr inbounds nuw %struct.lean_string_object, ptr %4, i32 0, i32 1
  %6 = load i64, ptr %5, align 8, !tbaa !13
  ret i64 %6
}

; Function Attrs: inlinehint nounwind uwtable
define internal zeroext i1 @lean_string_eq(ptr noundef %0, ptr noundef %1) #0 {
  %3 = alloca ptr, align 8
  %4 = alloca ptr, align 8
  store ptr %0, ptr %3, align 8, !tbaa !4
  store ptr %1, ptr %4, align 8, !tbaa !4
  %5 = load ptr, ptr %3, align 8, !tbaa !4
  %6 = load ptr, ptr %4, align 8, !tbaa !4
  %7 = icmp eq ptr %5, %6
  br i1 %7, label %20, label %8

8:                                                ; preds = %2
  %9 = load ptr, ptr %3, align 8, !tbaa !4
  %10 = call i64 @lean_string_size(ptr noundef %9)
  %11 = load ptr, ptr %4, align 8, !tbaa !4
  %12 = call i64 @lean_string_size(ptr noundef %11)
  %13 = icmp eq i64 %10, %12
  br i1 %13, label %14, label %18

14:                                               ; preds = %8
  %15 = load ptr, ptr %3, align 8, !tbaa !4
  %16 = load ptr, ptr %4, align 8, !tbaa !4
  %17 = call zeroext i1 @lean_string_eq_cold(ptr noundef %15, ptr noundef %16)
  br label %18

18:                                               ; preds = %14, %8
  %19 = phi i1 [ false, %8 ], [ %17, %14 ]
  br label %20

20:                                               ; preds = %18, %2
  %21 = phi i1 [ true, %2 ], [ %19, %18 ]
  ret i1 %21
}

; Function Attrs: inlinehint nounwind uwtable
define internal zeroext i8 @lean_string_dec_eq(ptr noundef %0, ptr noundef %1) #0 {
  %3 = alloca ptr, align 8
  %4 = alloca ptr, align 8
  store ptr %0, ptr %3, align 8, !tbaa !4
  store ptr %1, ptr %4, align 8, !tbaa !4
  %5 = load ptr, ptr %3, align 8, !tbaa !4
  %6 = load ptr, ptr %4, align 8, !tbaa !4
  %7 = call zeroext i1 @lean_string_eq(ptr noundef %5, ptr noundef %6)
  %8 = zext i1 %7 to i8
  ret i8 %8
}

; Function Attrs: nounwind uwtable
define ptr @l_Lake_helpScript(ptr noundef %0) #1 {
  %2 = alloca ptr, align 8
  %3 = alloca ptr, align 8
  %4 = alloca ptr, align 8
  %5 = alloca i8, align 1
  %6 = alloca ptr, align 8
  %7 = alloca i8, align 1
  %8 = alloca ptr, align 8
  %9 = alloca i8, align 1
  %10 = alloca ptr, align 8
  %11 = alloca i32, align 4
  %12 = alloca ptr, align 8
  %13 = alloca ptr, align 8
  %14 = alloca ptr, align 8
  store ptr %0, ptr %3, align 8, !tbaa !4
  br label %15

15:                                               ; preds = %1
  call void @llvm.lifetime.start.p0(i64 8, ptr %4) #7
  call void @llvm.lifetime.start.p0(i64 1, ptr %5) #7
  %16 = load ptr, ptr @l_Lake_helpScript___closed__1, align 8, !tbaa !4
  store ptr %16, ptr %4, align 8, !tbaa !4
  %17 = load ptr, ptr %3, align 8, !tbaa !4
  %18 = load ptr, ptr %4, align 8, !tbaa !4
  %19 = call zeroext i8 @lean_string_dec_eq(ptr noundef %17, ptr noundef %18)
  store i8 %19, ptr %5, align 1, !tbaa !8
  %20 = load i8, ptr %5, align 1, !tbaa !8
  %21 = zext i8 %20 to i32
  %22 = icmp eq i32 %21, 0
  br i1 %22, label %23, label %50

23:                                               ; preds = %15
  call void @llvm.lifetime.start.p0(i64 8, ptr %6) #7
  call void @llvm.lifetime.start.p0(i64 1, ptr %7) #7
  %24 = load ptr, ptr @l_Lake_helpScript___closed__2, align 8, !tbaa !4
  store ptr %24, ptr %6, align 8, !tbaa !4
  %25 = load ptr, ptr %3, align 8, !tbaa !4
  %26 = load ptr, ptr %6, align 8, !tbaa !4
  %27 = call zeroext i8 @lean_string_dec_eq(ptr noundef %25, ptr noundef %26)
  store i8 %27, ptr %7, align 1, !tbaa !8
  %28 = load i8, ptr %7, align 1, !tbaa !8
  %29 = zext i8 %28 to i32
  %30 = icmp eq i32 %29, 0
  br i1 %30, label %31, label %46

31:                                               ; preds = %23
  call void @llvm.lifetime.start.p0(i64 8, ptr %8) #7
  call void @llvm.lifetime.start.p0(i64 1, ptr %9) #7
  %32 = load ptr, ptr @l_Lake_helpScript___closed__3, align 8, !tbaa !4
  store ptr %32, ptr %8, align 8, !tbaa !4
  %33 = load ptr, ptr %3, align 8, !tbaa !4
  %34 = load ptr, ptr %8, align 8, !tbaa !4
  %35 = call zeroext i8 @lean_string_dec_eq(ptr noundef %33, ptr noundef %34)
  store i8 %35, ptr %9, align 1, !tbaa !8
  %36 = load i8, ptr %9, align 1, !tbaa !8
  %37 = zext i8 %36 to i32
  %38 = icmp eq i32 %37, 0
  br i1 %38, label %39, label %42

39:                                               ; preds = %31
  call void @llvm.lifetime.start.p0(i64 8, ptr %10) #7
  %40 = load ptr, ptr @l_Lake_helpScriptCli, align 8, !tbaa !4
  store ptr %40, ptr %10, align 8, !tbaa !4
  %41 = load ptr, ptr %10, align 8, !tbaa !4
  store ptr %41, ptr %2, align 8
  store i32 1, ptr %11, align 4
  call void @llvm.lifetime.end.p0(i64 8, ptr %10) #7
  br label %45

42:                                               ; preds = %31
  call void @llvm.lifetime.start.p0(i64 8, ptr %12) #7
  %43 = load ptr, ptr @l_Lake_helpScriptDoc, align 8, !tbaa !4
  store ptr %43, ptr %12, align 8, !tbaa !4
  %44 = load ptr, ptr %12, align 8, !tbaa !4
  store ptr %44, ptr %2, align 8
  store i32 1, ptr %11, align 4
  call void @llvm.lifetime.end.p0(i64 8, ptr %12) #7
  br label %45

45:                                               ; preds = %42, %39
  call void @llvm.lifetime.end.p0(i64 1, ptr %9) #7
  call void @llvm.lifetime.end.p0(i64 8, ptr %8) #7
  br label %49

46:                                               ; preds = %23
  call void @llvm.lifetime.start.p0(i64 8, ptr %13) #7
  %47 = load ptr, ptr @l_Lake_helpScriptRun, align 8, !tbaa !4
  store ptr %47, ptr %13, align 8, !tbaa !4
  %48 = load ptr, ptr %13, align 8, !tbaa !4
  store ptr %48, ptr %2, align 8
  store i32 1, ptr %11, align 4
  call void @llvm.lifetime.end.p0(i64 8, ptr %13) #7
  br label %49

49:                                               ; preds = %46, %45
  call void @llvm.lifetime.end.p0(i64 1, ptr %7) #7
  call void @llvm.lifetime.end.p0(i64 8, ptr %6) #7
  br label %53

50:                                               ; preds = %15
  call void @llvm.lifetime.start.p0(i64 8, ptr %14) #7
  %51 = load ptr, ptr @l_Lake_helpScriptList, align 8, !tbaa !4
  store ptr %51, ptr %14, align 8, !tbaa !4
  %52 = load ptr, ptr %14, align 8, !tbaa !4
  store ptr %52, ptr %2, align 8
  store i32 1, ptr %11, align 4
  call void @llvm.lifetime.end.p0(i64 8, ptr %14) #7
  br label %53

53:                                               ; preds = %50, %49
  call void @llvm.lifetime.end.p0(i64 1, ptr %5) #7
  call void @llvm.lifetime.end.p0(i64 8, ptr %4) #7
  %54 = load ptr, ptr %2, align 8
  ret ptr %54
}