; Function Attrs: nounwind uwtable
define ptr @l_Lake_helpScript(ptr noundef %0) local_unnamed_addr #0 {
  %2 = load ptr, ptr @l_Lake_helpScript___closed__1, align 8, !tbaa !4
  %3 = icmp eq ptr %0, %2
  br i1 %3, label %lean_string_dec_eq.exit.thread19, label %4

4:                                                ; preds = %1
  %5 = getelementptr i8, ptr %0, i64 8
  %.val.i.i = load i64, ptr %5, align 8, !tbaa !8
  %6 = getelementptr i8, ptr %2, i64 8
  %.val7.i.i = load i64, ptr %6, align 8, !tbaa !8
  %7 = icmp eq i64 %.val.i.i, %.val7.i.i
  br i1 %7, label %lean_string_dec_eq.exit, label %lean_string_dec_eq.exit.thread

lean_string_dec_eq.exit:                          ; preds = %4
  %8 = tail call zeroext i1 @lean_string_eq_cold(ptr noundef nonnull %0, ptr noundef nonnull %2) #3
  br i1 %8, label %lean_string_dec_eq.exit.thread19, label %lean_string_dec_eq.exit.thread

lean_string_dec_eq.exit.thread:                   ; preds = %4, %lean_string_dec_eq.exit
  %9 = load ptr, ptr @l_Lake_helpScript___closed__2, align 8, !tbaa !4
  %10 = icmp eq ptr %0, %9
  br i1 %10, label %lean_string_dec_eq.exit.thread19, label %11

11:                                               ; preds = %lean_string_dec_eq.exit.thread
  %.val.i.i13 = load i64, ptr %5, align 8, !tbaa !8
  %12 = getelementptr i8, ptr %9, i64 8
  %.val7.i.i14 = load i64, ptr %12, align 8, !tbaa !8
  %13 = icmp eq i64 %.val.i.i13, %.val7.i.i14
  br i1 %13, label %lean_string_dec_eq.exit15, label %lean_string_dec_eq.exit15.thread

lean_string_dec_eq.exit15:                        ; preds = %11
  %14 = tail call zeroext i1 @lean_string_eq_cold(ptr noundef nonnull %0, ptr noundef nonnull %9) #3
  br i1 %14, label %lean_string_dec_eq.exit.thread19, label %lean_string_dec_eq.exit15.thread

lean_string_dec_eq.exit15.thread:                 ; preds = %11, %lean_string_dec_eq.exit15
  %15 = load ptr, ptr @l_Lake_helpScript___closed__3, align 8, !tbaa !4
  %16 = icmp eq ptr %0, %15
  br i1 %16, label %lean_string_dec_eq.exit.thread19, label %17

17:                                               ; preds = %lean_string_dec_eq.exit15.thread
  %.val.i.i16 = load i64, ptr %5, align 8, !tbaa !8
  %18 = getelementptr i8, ptr %15, i64 8
  %.val7.i.i17 = load i64, ptr %18, align 8, !tbaa !8
  %19 = icmp eq i64 %.val.i.i16, %.val7.i.i17
  br i1 %19, label %lean_string_dec_eq.exit18, label %lean_string_dec_eq.exit18.thread

lean_string_dec_eq.exit18:                        ; preds = %17
  %20 = tail call zeroext i1 @lean_string_eq_cold(ptr noundef nonnull %0, ptr noundef nonnull %15) #3
  %.fr = freeze i1 %20
  br i1 %.fr, label %lean_string_dec_eq.exit.thread19, label %lean_string_dec_eq.exit18.thread

lean_string_dec_eq.exit18.thread:                 ; preds = %17, %lean_string_dec_eq.exit18
  br label %lean_string_dec_eq.exit.thread19

lean_string_dec_eq.exit.thread19:                 ; preds = %lean_string_dec_eq.exit15.thread, %lean_string_dec_eq.exit.thread, %1, %lean_string_dec_eq.exit18.thread, %lean_string_dec_eq.exit18, %lean_string_dec_eq.exit, %lean_string_dec_eq.exit15
  %.2.in = phi ptr [ @l_Lake_helpScriptRun, %lean_string_dec_eq.exit15 ], [ @l_Lake_helpScriptList, %lean_string_dec_eq.exit ], [ @l_Lake_helpScriptCli, %lean_string_dec_eq.exit18.thread ], [ @l_Lake_helpScriptDoc, %lean_string_dec_eq.exit18 ], [ @l_Lake_helpScriptList, %1 ], [ @l_Lake_helpScriptRun, %lean_string_dec_eq.exit.thread ], [ @l_Lake_helpScriptDoc, %lean_string_dec_eq.exit15.thread ]
  %.2 = load ptr, ptr %.2.in, align 8, !tbaa !4
  ret ptr %.2
}